; Function Attrs: nofree norecurse nosync nounwind memory(read, inaccessiblemem: none) uwtable
define i32 @Abc_NtkGetChoiceNum(ptr noundef readonly captures(none) %0) local_unnamed_addr #2 {
  %.val17 = load i32, ptr %0, align 8
  %.not = icmp eq i32 %.val17, 3
  br i1 %.not, label %.preheader, label %.critedge

.preheader:                                       ; preds = %1
  %2 = getelementptr inbounds nuw i8, ptr %0, i64 32
  %3 = load ptr, ptr %2, align 8
  %4 = getelementptr i8, ptr %3, i64 4
  %.val = load i32, ptr %4, align 4
  %5 = icmp sgt i32 %.val, 0
  br i1 %5, label %.lr.ph, label %.critedge

.lr.ph:                                           ; preds = %.preheader
  %6 = getelementptr i8, ptr %3, i64 8
  %.val15.val = load ptr, ptr %6, align 8
  %wide.trip.count = zext nneg i32 %.val to i64
  br label %7

7:                                                ; preds = %.lr.ph, %23
  %indvars.iv = phi i64 [ 0, %.lr.ph ], [ %indvars.iv.next, %23 ]
  %.020 = phi i32 [ 0, %.lr.ph ], [ %.1, %23 ]
  %8 = getelementptr inbounds nuw ptr, ptr %.val15.val, i64 %indvars.iv
  %9 = load ptr, ptr %8, align 8
  %10 = icmp eq ptr %9, null
  br i1 %10, label %23, label %11

11:                                               ; preds = %7
  %12 = getelementptr i8, ptr %9, i64 20
  %.val16 = load i32, ptr %12, align 4
  %13 = and i32 %.val16, 15
  %.not18 = icmp eq i32 %13, 7
  br i1 %.not18, label %14, label %23

14:                                               ; preds = %11
  %15 = getelementptr inbounds nuw i8, ptr %9, i64 56
  %16 = load ptr, ptr %15, align 8
  %.not.i = icmp eq ptr %16, null
  br i1 %.not.i, label %Abc_AigNodeIsChoice.exit, label %17

17:                                               ; preds = %14
  %18 = getelementptr i8, ptr %9, i64 44
  %.val.i = load i32, ptr %18, align 4
  %19 = icmp sgt i32 %.val.i, 0
  %20 = zext i1 %19 to i32
  br label %Abc_AigNodeIsChoice.exit

Abc_AigNodeIsChoice.exit:                         ; preds = %14, %17
  %21 = phi i32 [ 0, %14 ], [ %20, %17 ]
  %22 = add nsw i32 %21, %.020
  br label %23

23:                                               ; preds = %Abc_AigNodeIsChoice.exit, %11, %7
  %.1 = phi i32 [ %.020, %7 ], [ %22, %Abc_AigNodeIsChoice.exit ], [ %.020, %11 ]
  %indvars.iv.next = add nuw nsw i64 %indvars.iv, 1
  %exitcond.not = icmp eq i64 %indvars.iv.next, %wide.trip.count
  br i1 %exitcond.not, label %.critedge, label %7, !llvm.loop !27

.critedge:                                        ; preds = %23, %.preheader, %1
  %.012 = phi i32 [ 0, %1 ], [ 0, %.preheader ], [ %.1, %23 ]
  ret i32 %.012
}